target datalayout = "e-m:e-p270:32:32-p271:32:32-p272:64:64-i64:64-i128:128-f80:128-n8:16:32:64-S128"
target triple = "x86_64-pc-linux-gnu"

%struct.pointf_s = type { double, double }
%struct.GVJ_s = type { ptr, ptr, ptr, ptr, ptr, ptr, i32, ptr, ptr, ptr, ptr, i64, i64, ptr, i32, %struct.gvplugin_active_render_s, %struct.gvplugin_active_device_s, %struct.gvplugin_active_loadimage_t, ptr, %struct.pointf_s, i8, ptr, i32, ptr, i8, ptr, i32, i32, i32, %struct.point, %struct.point, %struct.point, %struct.point, %struct.point, i32, %struct.boxf, %struct.pointf_s, %struct.boxf, %struct.boxf, %struct.pointf_s, %struct.pointf_s, double, i32, %struct.pointf_s, %struct.boxf, %struct.pointf_s, %struct.pointf_s, i32, i32, %struct.box, %struct.box, %struct.pointf_s, %struct.pointf_s, %struct.pointf_s, i8, i8, i8, i8, i8, i8, %struct.pointf_s, %struct.pointf_s, ptr, ptr, ptr, ptr, ptr, ptr, i64, ptr }
%struct.gvplugin_active_render_s = type { ptr, i32, ptr, ptr }
%struct.gvplugin_active_device_s = type { ptr, i32, ptr, ptr }
%struct.gvplugin_active_loadimage_t = type { ptr, i32, ptr }
%struct.point = type { i32, i32 }
%struct.boxf = type { %struct.pointf_s, %struct.pointf_s }
%struct.box = type { %struct.point, %struct.point }
%struct.obj_state_s = type { ptr, i32, %union.anon, i32, %struct.color_s, %struct.color_s, %struct.color_s, i32, double, i32, i32, double, ptr, double, double, double, ptr, ptr, ptr, ptr, ptr, ptr, ptr, ptr, ptr, ptr, ptr, ptr, ptr, ptr, ptr, ptr, ptr, i16, i32, i64, ptr, i64, ptr, ptr, i32, ptr, i32, ptr }
%union.anon = type { ptr }
%struct.color_s = type { %union.anon.0, i32 }
%union.anon.0 = type { [4 x double] }
%struct.agxbuf = type { %union.anon.1 }
%union.anon.1 = type { %struct.anon }
%struct.anon = type { ptr, i64, i64, [7 x i8], i8 }
%struct.textspan_t = type { ptr, ptr, ptr, ptr, double, double, %struct.pointf_s, i8 }
%struct.textfont_t = type { ptr, ptr, ptr, double, i32 }

@layerz = internal global i32 0, align 4
@.str.26 = private unnamed_addr constant [52 x i8] c"//*** textspan: %s, fontsize = %.3f, fontname = %s\0A\00", align 1
@z = internal global i32 0, align 4
@.str.27 = private unnamed_addr constant [61 x i8] c"text {\0A    ttf \22%s\22,\0A    \22%s\22, %.3f, %.3f\0A        no_shadow\0A\00", align 1
@.str.28 = private unnamed_addr constant [16 x i8] c"    scale %.3f\0A\00", align 1
@.str.29 = private unnamed_addr constant [36 x i8] c"    rotate   <%9.3f, %9.3f, %9.3f>\0A\00", align 1
@.str.30 = private unnamed_addr constant [37 x i8] c"    translate<%9.3f, %9.3f, %d.000>\0A\00", align 1
@.str.31 = private unnamed_addr constant [9 x i8] c"    %s}\0A\00", align 1

; Function Attrs: inlinehint nounwind uwtable
define internal i64 @agxbsizeof(ptr noundef %0) #6 {
  %2 = alloca i64, align 8
  %3 = alloca ptr, align 8
  store ptr %0, ptr %3, align 8, !tbaa !39
  %4 = load ptr, ptr %3, align 8, !tbaa !39
  %5 = call zeroext i1 @agxbuf_is_inline(ptr noundef %4)
  br i1 %5, label %6, label %7

6:                                                ; preds = %1
  store i64 31, ptr %2, align 8
  br label %12

7:                                                ; preds = %1
  %8 = load ptr, ptr %3, align 8, !tbaa !39
  %9 = getelementptr inbounds nuw %struct.agxbuf, ptr %8, i32 0, i32 0
  %10 = getelementptr inbounds nuw %struct.anon, ptr %9, i32 0, i32 2
  %11 = load i64, ptr %10, align 8, !tbaa !31
  store i64 %11, ptr %2, align 8
  br label %12

12:                                               ; preds = %7, %6
  %13 = load i64, ptr %2, align 8
  ret i64 %13
}

; Function Attrs: inlinehint nounwind uwtable
define internal ptr @agxbstart(ptr noundef %0) #6 {
  %2 = alloca ptr, align 8
  store ptr %0, ptr %2, align 8, !tbaa !39
  %3 = load ptr, ptr %2, align 8, !tbaa !39
  %4 = call zeroext i1 @agxbuf_is_inline(ptr noundef %3)
  br i1 %4, label %5, label %9

5:                                                ; preds = %1
  %6 = load ptr, ptr %2, align 8, !tbaa !39
  %7 = getelementptr inbounds nuw %struct.agxbuf, ptr %6, i32 0, i32 0
  %8 = getelementptr inbounds [31 x i8], ptr %7, i64 0, i64 0
  br label %14

9:                                                ; preds = %1
  %10 = load ptr, ptr %2, align 8, !tbaa !39
  %11 = getelementptr inbounds nuw %struct.agxbuf, ptr %10, i32 0, i32 0
  %12 = getelementptr inbounds nuw %struct.anon, ptr %11, i32 0, i32 0
  %13 = load ptr, ptr %12, align 8, !tbaa !31
  br label %14

14:                                               ; preds = %9, %5
  %15 = phi ptr [ %8, %5 ], [ %13, %9 ]
  ret ptr %15
}

; Function Attrs: inlinehint nounwind uwtable
define internal void @agxbclear(ptr noundef %0) #6 {
  %2 = alloca ptr, align 8
  store ptr %0, ptr %2, align 8, !tbaa !39
  %3 = load ptr, ptr %2, align 8, !tbaa !39
  %4 = call zeroext i1 @agxbuf_is_inline(ptr noundef %3)
  br i1 %4, label %5, label %9

5:                                                ; preds = %1
  %6 = load ptr, ptr %2, align 8, !tbaa !39
  %7 = getelementptr inbounds nuw %struct.agxbuf, ptr %6, i32 0, i32 0
  %8 = getelementptr inbounds nuw %struct.anon, ptr %7, i32 0, i32 4
  store i8 0, ptr %8, align 1, !tbaa !31
  br label %13

9:                                                ; preds = %1
  %10 = load ptr, ptr %2, align 8, !tbaa !39
  %11 = getelementptr inbounds nuw %struct.agxbuf, ptr %10, i32 0, i32 0
  %12 = getelementptr inbounds nuw %struct.anon, ptr %11, i32 0, i32 1
  store i64 0, ptr %12, align 8, !tbaa !31
  br label %13

13:                                               ; preds = %9, %5
  ret void
}

; Function Attrs: inlinehint nounwind uwtable
define internal i32 @agxbputc(ptr noundef %0, i8 noundef signext %1) #6 {
  %3 = alloca ptr, align 8
  %4 = alloca i8, align 1
  %5 = alloca i64, align 8
  store ptr %0, ptr %3, align 8, !tbaa !39
  store i8 %1, ptr %4, align 1, !tbaa !31
  %6 = load ptr, ptr %3, align 8, !tbaa !39
  %7 = call i64 @agxblen(ptr noundef %6)
  %8 = load ptr, ptr %3, align 8, !tbaa !39
  %9 = call i64 @agxbsizeof(ptr noundef %8)
  %10 = icmp uge i64 %7, %9
  br i1 %10, label %11, label %13

11:                                               ; preds = %2
  %12 = load ptr, ptr %3, align 8, !tbaa !39
  call void @agxbmore(ptr noundef %12, i64 noundef 1)
  br label %13

13:                                               ; preds = %11, %2
  call void @llvm.lifetime.start.p0(i64 8, ptr %5) #14
  %14 = load ptr, ptr %3, align 8, !tbaa !39
  %15 = call i64 @agxblen(ptr noundef %14)
  store i64 %15, ptr %5, align 8, !tbaa !61
  %16 = load ptr, ptr %3, align 8, !tbaa !39
  %17 = call zeroext i1 @agxbuf_is_inline(ptr noundef %16)
  br i1 %17, label %18, label %29

18:                                               ; preds = %13
  %19 = load i8, ptr %4, align 1, !tbaa !31
  %20 = load ptr, ptr %3, align 8, !tbaa !39
  %21 = getelementptr inbounds nuw %struct.agxbuf, ptr %20, i32 0, i32 0
  %22 = load i64, ptr %5, align 8, !tbaa !61
  %23 = getelementptr inbounds nuw [31 x i8], ptr %21, i64 0, i64 %22
  store i8 %19, ptr %23, align 1, !tbaa !31
  %24 = load ptr, ptr %3, align 8, !tbaa !39
  %25 = getelementptr inbounds nuw %struct.agxbuf, ptr %24, i32 0, i32 0
  %26 = getelementptr inbounds nuw %struct.anon, ptr %25, i32 0, i32 4
  %27 = load i8, ptr %26, align 1, !tbaa !31
  %28 = add i8 %27, 1
  store i8 %28, ptr %26, align 1, !tbaa !31
  br label %42

29:                                               ; preds = %13
  %30 = load i8, ptr %4, align 1, !tbaa !31
  %31 = load ptr, ptr %3, align 8, !tbaa !39
  %32 = getelementptr inbounds nuw %struct.agxbuf, ptr %31, i32 0, i32 0
  %33 = getelementptr inbounds nuw %struct.anon, ptr %32, i32 0, i32 0
  %34 = load ptr, ptr %33, align 8, !tbaa !31
  %35 = load i64, ptr %5, align 8, !tbaa !61
  %36 = getelementptr inbounds nuw i8, ptr %34, i64 %35
  store i8 %30, ptr %36, align 1, !tbaa !31
  %37 = load ptr, ptr %3, align 8, !tbaa !39
  %38 = getelementptr inbounds nuw %struct.agxbuf, ptr %37, i32 0, i32 0
  %39 = getelementptr inbounds nuw %struct.anon, ptr %38, i32 0, i32 1
  %40 = load i64, ptr %39, align 8, !tbaa !31
  %41 = add i64 %40, 1
  store i64 %41, ptr %39, align 8, !tbaa !31
  br label %42

42:                                               ; preds = %29, %18
  call void @llvm.lifetime.end.p0(i64 8, ptr %5) #14
  ret i32 0
}

; Function Attrs: inlinehint nounwind uwtable
define internal i64 @agxblen(ptr noundef %0) #6 {
  %2 = alloca i64, align 8
  %3 = alloca ptr, align 8
  store ptr %0, ptr %3, align 8, !tbaa !39
  %4 = load ptr, ptr %3, align 8, !tbaa !39
  %5 = call zeroext i1 @agxbuf_is_inline(ptr noundef %4)
  br i1 %5, label %6, label %14

6:                                                ; preds = %1
  %7 = load ptr, ptr %3, align 8, !tbaa !39
  %8 = getelementptr inbounds nuw %struct.agxbuf, ptr %7, i32 0, i32 0
  %9 = getelementptr inbounds nuw %struct.anon, ptr %8, i32 0, i32 4
  %10 = load i8, ptr %9, align 1, !tbaa !31
  %11 = zext i8 %10 to i32
  %12 = sub nsw i32 %11, 0
  %13 = sext i32 %12 to i64
  store i64 %13, ptr %2, align 8
  br label %19

14:                                               ; preds = %1
  %15 = load ptr, ptr %3, align 8, !tbaa !39
  %16 = getelementptr inbounds nuw %struct.agxbuf, ptr %15, i32 0, i32 0
  %17 = getelementptr inbounds nuw %struct.anon, ptr %16, i32 0, i32 1
  %18 = load i64, ptr %17, align 8, !tbaa !31
  store i64 %18, ptr %2, align 8
  br label %19

19:                                               ; preds = %14, %6
  %20 = load i64, ptr %2, align 8
  ret i64 %20
}

; Function Attrs: inlinehint nounwind uwtable
define internal zeroext i1 @agxbuf_is_inline(ptr noundef %0) #6 {
  %2 = alloca ptr, align 8
  store ptr %0, ptr %2, align 8, !tbaa !39
  %3 = load ptr, ptr %2, align 8, !tbaa !39
  %4 = getelementptr inbounds nuw %struct.agxbuf, ptr %3, i32 0, i32 0
  %5 = getelementptr inbounds nuw %struct.anon, ptr %4, i32 0, i32 4
  %6 = load i8, ptr %5, align 1, !tbaa !31
  %7 = zext i8 %6 to i32
  %8 = icmp slt i32 %7, 255
  ret i1 %8
}

; Function Attrs: inlinehint nounwind uwtable
define internal void @agxbfree(ptr noundef %0) #6 {
  %2 = alloca ptr, align 8
  store ptr %0, ptr %2, align 8, !tbaa !39
  %3 = load ptr, ptr %2, align 8, !tbaa !39
  %4 = getelementptr inbounds nuw %struct.agxbuf, ptr %3, i32 0, i32 0
  %5 = getelementptr inbounds nuw %struct.anon, ptr %4, i32 0, i32 4
  %6 = load i8, ptr %5, align 1, !tbaa !31
  %7 = zext i8 %6 to i32
  %8 = icmp eq i32 %7, 255
  br i1 %8, label %9, label %14

9:                                                ; preds = %1
  %10 = load ptr, ptr %2, align 8, !tbaa !39
  %11 = getelementptr inbounds nuw %struct.agxbuf, ptr %10, i32 0, i32 0
  %12 = getelementptr inbounds nuw %struct.anon, ptr %11, i32 0, i32 0
  %13 = load ptr, ptr %12, align 8, !tbaa !31
  call void @free(ptr noundef %13) #14
  br label %14

14:                                               ; preds = %9, %1
  ret void
}

; Function Attrs: inlinehint nounwind uwtable
define internal ptr @agxbuse(ptr noundef %0) #6 {
  %2 = alloca ptr, align 8
  store ptr %0, ptr %2, align 8, !tbaa !39
  %3 = load ptr, ptr %2, align 8, !tbaa !39
  %4 = call zeroext i1 @agxbuf_is_inline(ptr noundef %3)
  br i1 %4, label %5, label %9

5:                                                ; preds = %1
  %6 = load ptr, ptr %2, align 8, !tbaa !39
  %7 = call i64 @agxblen(ptr noundef %6)
  %8 = icmp ne i64 %7, 31
  br i1 %8, label %9, label %12

9:                                                ; preds = %5, %1
  %10 = load ptr, ptr %2, align 8, !tbaa !39
  %11 = call i32 @agxbputc(ptr noundef %10, i8 noundef signext 0)
  br label %13

12:                                               ; preds = %5
  br label %13

13:                                               ; preds = %12, %9
  %14 = load ptr, ptr %2, align 8, !tbaa !39
  call void @agxbclear(ptr noundef %14)
  %15 = load ptr, ptr %2, align 8, !tbaa !39
  %16 = call ptr @agxbstart(ptr noundef %15)
  ret ptr %16
}

; Function Attrs: nounwind uwtable
define internal void @pov_textspan(ptr noundef %0, double %1, double %2, ptr noundef %3) #0 {
  %5 = alloca %struct.pointf_s, align 8
  %6 = alloca ptr, align 8
  %7 = alloca ptr, align 8
  %8 = alloca double, align 8
  %9 = alloca double, align 8
  %10 = alloca ptr, align 8
  %11 = alloca %struct.agxbuf, align 8
  %12 = getelementptr inbounds nuw { double, double }, ptr %5, i32 0, i32 0
  store double %1, ptr %12, align 8
  %13 = getelementptr inbounds nuw { double, double }, ptr %5, i32 0, i32 1
  store double %2, ptr %13, align 8
  store ptr %0, ptr %6, align 8, !tbaa !3
  store ptr %3, ptr %7, align 8, !tbaa !39
  %14 = load ptr, ptr %6, align 8, !tbaa !3
  %15 = load ptr, ptr %7, align 8, !tbaa !39
  %16 = getelementptr inbounds nuw %struct.textspan_t, ptr %15, i32 0, i32 0
  %17 = load ptr, ptr %16, align 8, !tbaa !40
  %18 = load ptr, ptr %7, align 8, !tbaa !39
  %19 = getelementptr inbounds nuw %struct.textspan_t, ptr %18, i32 0, i32 1
  %20 = load ptr, ptr %19, align 8, !tbaa !42
  %21 = getelementptr inbounds nuw %struct.textfont_t, ptr %20, i32 0, i32 3
  %22 = load double, ptr %21, align 8, !tbaa !43
  %23 = load ptr, ptr %7, align 8, !tbaa !39
  %24 = getelementptr inbounds nuw %struct.textspan_t, ptr %23, i32 0, i32 1
  %25 = load ptr, ptr %24, align 8, !tbaa !42
  %26 = getelementptr inbounds nuw %struct.textfont_t, ptr %25, i32 0, i32 0
  %27 = load ptr, ptr %26, align 8, !tbaa !46
  call void (ptr, ptr, ...) @gvprintf(ptr noundef %14, ptr noundef @.str.26, ptr noundef %17, double noundef %22, ptr noundef %27)
  %28 = load i32, ptr @layerz, align 4, !tbaa !37
  %29 = sub nsw i32 %28, 9
  store i32 %29, ptr @z, align 4, !tbaa !37
  %30 = load ptr, ptr %7, align 8, !tbaa !39
  %31 = getelementptr inbounds nuw %struct.textspan_t, ptr %30, i32 0, i32 7
  %32 = load i8, ptr %31, align 8, !tbaa !47
  %33 = sext i8 %32 to i32
  switch i32 %33, label %43 [
    i32 108, label %54
    i32 114, label %34
    i32 110, label %44
  ]

34:                                               ; preds = %4
  %35 = getelementptr inbounds nuw %struct.pointf_s, ptr %5, i32 0, i32 0
  %36 = load double, ptr %35, align 8, !tbaa !48
  %37 = load ptr, ptr %7, align 8, !tbaa !39
  %38 = getelementptr inbounds nuw %struct.textspan_t, ptr %37, i32 0, i32 6
  %39 = getelementptr inbounds nuw %struct.pointf_s, ptr %38, i32 0, i32 0
  %40 = load double, ptr %39, align 8, !tbaa !49
  %41 = fsub double %36, %40
  %42 = getelementptr inbounds nuw %struct.pointf_s, ptr %5, i32 0, i32 0
  store double %41, ptr %42, align 8, !tbaa !48
  br label %54

43:                                               ; preds = %4
  br label %44

44:                                               ; preds = %4, %43
  %45 = getelementptr inbounds nuw %struct.pointf_s, ptr %5, i32 0, i32 0
  %46 = load double, ptr %45, align 8, !tbaa !48
  %47 = load ptr, ptr %7, align 8, !tbaa !39
  %48 = getelementptr inbounds nuw %struct.textspan_t, ptr %47, i32 0, i32 6
  %49 = getelementptr inbounds nuw %struct.pointf_s, ptr %48, i32 0, i32 0
  %50 = load double, ptr %49, align 8, !tbaa !49
  %51 = fdiv double %50, 2.000000e+00
  %52 = fsub double %46, %51
  %53 = getelementptr inbounds nuw %struct.pointf_s, ptr %5, i32 0, i32 0
  store double %52, ptr %53, align 8, !tbaa !48
  br label %54

54:                                               ; preds = %44, %34, %4
  call void @llvm.lifetime.start.p0(i64 8, ptr %8) #14
  %55 = getelementptr inbounds nuw %struct.pointf_s, ptr %5, i32 0, i32 0
  %56 = load double, ptr %55, align 8, !tbaa !48
  %57 = load ptr, ptr %6, align 8, !tbaa !3
  %58 = getelementptr inbounds nuw %struct.GVJ_s, ptr %57, i32 0, i32 52
  %59 = getelementptr inbounds nuw %struct.pointf_s, ptr %58, i32 0, i32 0
  %60 = load double, ptr %59, align 8, !tbaa !50
  %61 = fadd double %56, %60
  %62 = load ptr, ptr %6, align 8, !tbaa !3
  %63 = getelementptr inbounds nuw %struct.GVJ_s, ptr %62, i32 0, i32 51
  %64 = getelementptr inbounds nuw %struct.pointf_s, ptr %63, i32 0, i32 0
  %65 = load double, ptr %64, align 8, !tbaa !33
  %66 = fmul double %61, %65
  store double %66, ptr %8, align 8, !tbaa !34
  call void @llvm.lifetime.start.p0(i64 8, ptr %9) #14
  %67 = getelementptr inbounds nuw %struct.pointf_s, ptr %5, i32 0, i32 1
  %68 = load double, ptr %67, align 8, !tbaa !51
  %69 = load ptr, ptr %6, align 8, !tbaa !3
  %70 = getelementptr inbounds nuw %struct.GVJ_s, ptr %69, i32 0, i32 52
  %71 = getelementptr inbounds nuw %struct.pointf_s, ptr %70, i32 0, i32 1
  %72 = load double, ptr %71, align 8, !tbaa !52
  %73 = fadd double %68, %72
  %74 = load ptr, ptr %6, align 8, !tbaa !3
  %75 = getelementptr inbounds nuw %struct.GVJ_s, ptr %74, i32 0, i32 51
  %76 = getelementptr inbounds nuw %struct.pointf_s, ptr %75, i32 0, i32 1
  %77 = load double, ptr %76, align 8, !tbaa !36
  %78 = fmul double %73, %77
  store double %78, ptr %9, align 8, !tbaa !34
  call void @llvm.lifetime.start.p0(i64 8, ptr %10) #14
  %79 = load ptr, ptr %6, align 8, !tbaa !3
  %80 = load ptr, ptr %6, align 8, !tbaa !3
  %81 = getelementptr inbounds nuw %struct.GVJ_s, ptr %80, i32 0, i32 4
  %82 = load ptr, ptr %81, align 8, !tbaa !8
  %83 = getelementptr inbounds nuw %struct.obj_state_s, ptr %82, i32 0, i32 4
  %84 = call ptr @pov_color_as_str(ptr noundef %79, ptr noundef byval(%struct.color_s) align 8 %83, float noundef 0.000000e+00)
  store ptr %84, ptr %10, align 8, !tbaa !38
  call void @llvm.lifetime.start.p0(i64 32, ptr %11) #14
  call void @llvm.memset.p0.i64(ptr align 8 %11, i8 0, i64 32, i1 false)
  %85 = load ptr, ptr %7, align 8, !tbaa !39
  %86 = getelementptr inbounds nuw %struct.textspan_t, ptr %85, i32 0, i32 1
  %87 = load ptr, ptr %86, align 8, !tbaa !42
  %88 = getelementptr inbounds nuw %struct.textfont_t, ptr %87, i32 0, i32 0
  %89 = load ptr, ptr %88, align 8, !tbaa !46
  %90 = load ptr, ptr %7, align 8, !tbaa !39
  %91 = getelementptr inbounds nuw %struct.textspan_t, ptr %90, i32 0, i32 0
  %92 = load ptr, ptr %91, align 8, !tbaa !40
  %93 = call i32 (ptr, ptr, ...) @agxbprint(ptr noundef %11, ptr noundef @.str.27, ptr noundef %89, ptr noundef %92, double noundef 2.500000e-01, double noundef 0.000000e+00)
  %94 = load ptr, ptr %7, align 8, !tbaa !39
  %95 = getelementptr inbounds nuw %struct.textspan_t, ptr %94, i32 0, i32 1
  %96 = load ptr, ptr %95, align 8, !tbaa !42
  %97 = getelementptr inbounds nuw %struct.textfont_t, ptr %96, i32 0, i32 3
  %98 = load double, ptr %97, align 8, !tbaa !43
  %99 = load ptr, ptr %6, align 8, !tbaa !3
  %100 = getelementptr inbounds nuw %struct.GVJ_s, ptr %99, i32 0, i32 51
  %101 = getelementptr inbounds nuw %struct.pointf_s, ptr %100, i32 0, i32 0
  %102 = load double, ptr %101, align 8, !tbaa !33
  %103 = fmul double %98, %102
  %104 = call i32 (ptr, ptr, ...) @agxbprint(ptr noundef %11, ptr noundef @.str.28, double noundef %103)
  %105 = load ptr, ptr %6, align 8, !tbaa !3
  %106 = getelementptr inbounds nuw %struct.GVJ_s, ptr %105, i32 0, i32 42
  %107 = load i32, ptr %106, align 8, !tbaa !53
  %108 = sitofp i32 %107 to float
  %109 = fpext float %108 to double
  %110 = call i32 (ptr, ptr, ...) @agxbprint(ptr noundef %11, ptr noundef @.str.29, double noundef 0.000000e+00, double noundef 0.000000e+00, double noundef %109)
  %111 = load double, ptr %8, align 8, !tbaa !34
  %112 = load double, ptr %9, align 8, !tbaa !34
  %113 = load i32, ptr @z, align 4, !tbaa !37
  %114 = call i32 (ptr, ptr, ...) @agxbprint(ptr noundef %11, ptr noundef @.str.30, double noundef %111, double noundef %112, i32 noundef %113)
  %115 = load ptr, ptr %10, align 8, !tbaa !38
  %116 = call i32 (ptr, ptr, ...) @agxbprint(ptr noundef %11, ptr noundef @.str.31, ptr noundef %115)
  %117 = load ptr, ptr %6, align 8, !tbaa !3
  %118 = call ptr @agxbuse(ptr noundef %11)
  %119 = call i32 @gvputs(ptr noundef %117, ptr noundef %118)
  call void @agxbfree(ptr noundef %11)
  %120 = load ptr, ptr %10, align 8, !tbaa !38
  call void @free(ptr noundef %120) #14
  call void @llvm.lifetime.end.p0(i64 32, ptr %11) #14
  call void @llvm.lifetime.end.p0(i64 8, ptr %10) #14
  call void @llvm.lifetime.end.p0(i64 8, ptr %9) #14
  call void @llvm.lifetime.end.p0(i64 8, ptr %8) #14
  ret void
}