; Function Attrs: nounwind uwtable
define internal void @pov_textspan(ptr noundef %0, double %1, double %2, ptr noundef readonly captures(none) %3) #0 {
  %5 = alloca %struct.agxbuf, align 8
  %6 = load ptr, ptr %3, align 8, !tbaa !36
  %7 = getelementptr inbounds nuw i8, ptr %3, i64 8
  %8 = load ptr, ptr %7, align 8, !tbaa !38
  %9 = getelementptr inbounds nuw i8, ptr %8, i64 24
  %10 = load double, ptr %9, align 8, !tbaa !39
  %11 = load ptr, ptr %8, align 8, !tbaa !42
  tail call void (ptr, ptr, ...) @gvprintf(ptr noundef %0, ptr noundef nonnull @.str.26, ptr noundef %6, double noundef %10, ptr noundef %11) #18
  %12 = load i32, ptr @layerz, align 4, !tbaa !35
  %13 = add nsw i32 %12, -9
  store i32 %13, ptr @z, align 4, !tbaa !35
  %14 = getelementptr inbounds nuw i8, ptr %3, i64 64
  %15 = load i8, ptr %14, align 8, !tbaa !43
  switch i8 %15, label %20 [
    i8 108, label %25
    i8 114, label %16
  ]

16:                                               ; preds = %4
  %17 = getelementptr inbounds nuw i8, ptr %3, i64 48
  %18 = load double, ptr %17, align 8, !tbaa !44
  %19 = fsub double %1, %18
  br label %25

20:                                               ; preds = %4
  %21 = getelementptr inbounds nuw i8, ptr %3, i64 48
  %22 = load double, ptr %21, align 8, !tbaa !44
  %23 = fmul double %22, 5.000000e-01
  %24 = fsub double %1, %23
  br label %25

25:                                               ; preds = %20, %16, %4
  %.sroa.0.0 = phi double [ %24, %20 ], [ %19, %16 ], [ %1, %4 ]
  %26 = getelementptr inbounds nuw i8, ptr %0, i64 632
  %27 = load double, ptr %26, align 8, !tbaa !45
  %28 = fadd double %.sroa.0.0, %27
  %29 = getelementptr inbounds nuw i8, ptr %0, i64 616
  %30 = load double, ptr %29, align 8, !tbaa !32
  %31 = fmul double %28, %30
  %32 = getelementptr inbounds nuw i8, ptr %0, i64 640
  %33 = load double, ptr %32, align 8, !tbaa !46
  %34 = fadd double %2, %33
  %35 = getelementptr inbounds nuw i8, ptr %0, i64 624
  %36 = load double, ptr %35, align 8, !tbaa !34
  %37 = fmul double %34, %36
  %38 = getelementptr inbounds nuw i8, ptr %0, i64 32
  %39 = load ptr, ptr %38, align 8, !tbaa !3
  %40 = getelementptr inbounds nuw i8, ptr %39, i64 32
  %41 = tail call fastcc ptr @pov_color_as_str(ptr noundef nonnull byval(%struct.color_s) align 8 %40, float noundef 0.000000e+00)
  call void @llvm.lifetime.start.p0(i64 32, ptr nonnull %5) #18
  call void @llvm.memset.p0.i64(ptr noundef nonnull align 8 dereferenceable(32) %5, i8 0, i64 32, i1 false)
  %42 = load ptr, ptr %7, align 8, !tbaa !38
  %43 = load ptr, ptr %42, align 8, !tbaa !42
  %44 = load ptr, ptr %3, align 8, !tbaa !36
  call void (ptr, ptr, ...) @agxbprint(ptr noundef %5, ptr noundef nonnull @.str.27, ptr noundef %43, ptr noundef %44, double noundef 2.500000e-01, double noundef 0.000000e+00)
  %45 = load ptr, ptr %7, align 8, !tbaa !38
  %46 = getelementptr inbounds nuw i8, ptr %45, i64 24
  %47 = load double, ptr %46, align 8, !tbaa !39
  %48 = load double, ptr %29, align 8, !tbaa !32
  %49 = fmul double %47, %48
  call void (ptr, ptr, ...) @agxbprint(ptr noundef %5, ptr noundef nonnull @.str.28, double noundef %49)
  %50 = getelementptr inbounds nuw i8, ptr %0, i64 488
  %51 = load i32, ptr %50, align 8, !tbaa !47
  %52 = sitofp i32 %51 to float
  %53 = fpext float %52 to double
  call void (ptr, ptr, ...) @agxbprint(ptr noundef %5, ptr noundef nonnull @.str.29, double noundef 0.000000e+00, double noundef 0.000000e+00, double noundef %53)
  %54 = load i32, ptr @z, align 4, !tbaa !35
  call void (ptr, ptr, ...) @agxbprint(ptr noundef %5, ptr noundef nonnull @.str.30, double noundef %31, double noundef %37, i32 noundef %54)
  call void (ptr, ptr, ...) @agxbprint(ptr noundef %5, ptr noundef nonnull @.str.31, ptr noundef %41)
  %55 = getelementptr inbounds nuw i8, ptr %5, i64 31
  %.val.i = load i8, ptr %55, align 1, !tbaa !30
  switch i8 %.val.i, label %agxblen.exit.i.i [
    i8 -1, label %57
    i8 31, label %agxbclear.exit.thread.i
  ]

agxblen.exit.i.i:                                 ; preds = %25
  %56 = zext i8 %.val.i to i64
  br label %agxbsizeof.exit.i.i

57:                                               ; preds = %25
  %58 = getelementptr inbounds nuw i8, ptr %5, i64 8
  %59 = load i64, ptr %58, align 8, !tbaa !30
  %60 = getelementptr inbounds nuw i8, ptr %5, i64 16
  %61 = load i64, ptr %60, align 8, !tbaa !30
  br label %agxbsizeof.exit.i.i

agxbsizeof.exit.i.i:                              ; preds = %57, %agxblen.exit.i.i
  %.0.i20.i.i = phi i64 [ %59, %57 ], [ %56, %agxblen.exit.i.i ]
  %.0.i14.i.i = phi i64 [ %61, %57 ], [ 31, %agxblen.exit.i.i ]
  %.not.i5.i = icmp ult i64 %.0.i20.i.i, %.0.i14.i.i
  br i1 %.not.i5.i, label %63, label %62

62:                                               ; preds = %agxbsizeof.exit.i.i
  call fastcc void @agxbmore(ptr noundef nonnull %5, i64 noundef 1)
  %.val.i15.pre.i.i = load i8, ptr %55, align 1, !tbaa !30
  br label %63

63:                                               ; preds = %62, %agxbsizeof.exit.i.i
  %.val.i6.pr.i = phi i8 [ %.val.i15.pre.i.i, %62 ], [ %.val.i, %agxbsizeof.exit.i.i ]
  %.not.i16.i.i = icmp eq i8 %.val.i6.pr.i, -1
  br i1 %.not.i16.i.i, label %agxbputc.exit.i.thread, label %agxbputc.exit.i

agxbputc.exit.i.thread:                           ; preds = %63
  %64 = getelementptr inbounds nuw i8, ptr %5, i64 8
  %65 = load i64, ptr %64, align 8, !tbaa !30
  %66 = load ptr, ptr %5, align 8, !tbaa !30
  %67 = getelementptr inbounds nuw i8, ptr %66, i64 %65
  store i8 0, ptr %67, align 1, !tbaa !30
  br label %73

agxbputc.exit.i:                                  ; preds = %63
  %68 = zext i8 %.val.i6.pr.i to i64
  %69 = getelementptr inbounds nuw [31 x i8], ptr %5, i64 0, i64 %68
  store i8 0, ptr %69, align 1, !tbaa !30
  %70 = load i8, ptr %55, align 1, !tbaa !30
  %71 = add i8 %70, 1
  store i8 %71, ptr %55, align 1, !tbaa !30
  %72 = icmp eq i8 %71, -1
  br i1 %72, label %73, label %agxbclear.exit.thread.i

agxbclear.exit.thread.i:                          ; preds = %agxbputc.exit.i, %25
  store i8 0, ptr %55, align 1, !tbaa !30
  br label %agxbuse.exit

73:                                               ; preds = %agxbputc.exit.i.thread, %agxbputc.exit.i
  %74 = getelementptr inbounds nuw i8, ptr %5, i64 8
  store i64 0, ptr %74, align 8, !tbaa !30
  %75 = load ptr, ptr %5, align 8, !tbaa !30
  br label %agxbuse.exit

agxbuse.exit:                                     ; preds = %agxbclear.exit.thread.i, %73
  %76 = phi ptr [ %75, %73 ], [ %5, %agxbclear.exit.thread.i ]
  %77 = call i32 @gvputs(ptr noundef nonnull %0, ptr noundef %76) #18
  %.val25 = load i8, ptr %55, align 1, !tbaa !30
  %78 = icmp eq i8 %.val25, -1
  br i1 %78, label %79, label %agxbfree.exit

79:                                               ; preds = %agxbuse.exit
  %.val = load ptr, ptr %5, align 8
  call void @free(ptr noundef %.val) #18
  br label %agxbfree.exit

agxbfree.exit:                                    ; preds = %agxbuse.exit, %79
  call void @free(ptr noundef %41) #18
  call void @llvm.lifetime.end.p0(i64 32, ptr nonnull %5) #18
  ret void
}